target datalayout = "e-m:e-p270:32:32-p271:32:32-p272:64:64-i64:64-i128:128-f80:128-n8:16:32:64-S128"
target triple = "x86_64-unknown-linux-gnu"

; Function Attrs: mustprogress nounwind uwtable
define internal noundef double @_ZN8QuantLib12_GLOBAL__N_14PHIDEd(double noundef %Z) #1 {
entry:
  %Z.addr = alloca double, align 8
  %P0 = alloca double, align 8
  %P1 = alloca double, align 8
  %P2 = alloca double, align 8
  %P3 = alloca double, align 8
  %P4 = alloca double, align 8
  %P5 = alloca double, align 8
  %P6 = alloca double, align 8
  %Q0 = alloca double, align 8
  %Q1 = alloca double, align 8
  %Q2 = alloca double, align 8
  %Q3 = alloca double, align 8
  %Q4 = alloca double, align 8
  %Q5 = alloca double, align 8
  %Q6 = alloca double, align 8
  %Q7 = alloca double, align 8
  %P = alloca double, align 8
  %EXPNTL = alloca double, align 8
  %CUTOFF = alloca double, align 8
  %ROOTPI = alloca double, align 8
  %ZABS = alloca double, align 8
  store double %Z, ptr %Z.addr, align 8, !tbaa !62
  call void @llvm.lifetime.start.p0(i64 8, ptr %P0) #11
  call void @llvm.lifetime.start.p0(i64 8, ptr %P1) #11
  call void @llvm.lifetime.start.p0(i64 8, ptr %P2) #11
  call void @llvm.lifetime.start.p0(i64 8, ptr %P3) #11
  call void @llvm.lifetime.start.p0(i64 8, ptr %P4) #11
  call void @llvm.lifetime.start.p0(i64 8, ptr %P5) #11
  call void @llvm.lifetime.start.p0(i64 8, ptr %P6) #11
  call void @llvm.lifetime.start.p0(i64 8, ptr %Q0) #11
  call void @llvm.lifetime.start.p0(i64 8, ptr %Q1) #11
  call void @llvm.lifetime.start.p0(i64 8, ptr %Q2) #11
  call void @llvm.lifetime.start.p0(i64 8, ptr %Q3) #11
  call void @llvm.lifetime.start.p0(i64 8, ptr %Q4) #11
  call void @llvm.lifetime.start.p0(i64 8, ptr %Q5) #11
  call void @llvm.lifetime.start.p0(i64 8, ptr %Q6) #11
  call void @llvm.lifetime.start.p0(i64 8, ptr %Q7) #11
  call void @llvm.lifetime.start.p0(i64 8, ptr %P) #11
  call void @llvm.lifetime.start.p0(i64 8, ptr %EXPNTL) #11
  call void @llvm.lifetime.start.p0(i64 8, ptr %CUTOFF) #11
  call void @llvm.lifetime.start.p0(i64 8, ptr %ROOTPI) #11
  call void @llvm.lifetime.start.p0(i64 8, ptr %ZABS) #11
  store double 0x406B869EA974C7E9, ptr %P0, align 8, !tbaa !62
  store double 0x406BA6D5C7A28CF5, ptr %P1, align 8, !tbaa !62
  store double 0x405C05131CA58D35, ptr %P2, align 8, !tbaa !62
  store double 0x4040F4D8CBB02431, ptr %P3, align 8, !tbaa !62
  store double 0x40197EEFF2A86F23, ptr %P4, align 8, !tbaa !62
  store double 0x3FE66989BE8EA720, ptr %P5, align 8, !tbaa !62
  store double 0x3FA20DED0B57FBDD, ptr %P6, align 8, !tbaa !62
  store double 0x407B869EA974C7E9, ptr %Q0, align 8, !tbaa !62
  store double 0x4088CE9CB298974E, ptr %Q1, align 8, !tbaa !62
  store double 0x4083EAAB47FA1778, ptr %Q2, align 8, !tbaa !62
  store double 0x4072890729BA781A, ptr %Q3, align 8, !tbaa !62
  store double 0x4055B1F78433A599, ptr %Q4, align 8, !tbaa !62
  store double 0x4030106DF11BD48F, ptr %Q5, align 8, !tbaa !62
  store double 0x3FFC173673887D1A, ptr %Q6, align 8, !tbaa !62
  store double 0x3FB6A09E667F3BCD, ptr %Q7, align 8, !tbaa !62
  store double 0x40040D931FF62707, ptr %ROOTPI, align 8, !tbaa !62
  store double 0x401C48C6001F0ABF, ptr %CUTOFF, align 8, !tbaa !62
  %0 = load double, ptr %Z.addr, align 8, !tbaa !62
  %1 = call double @llvm.fabs.f64(double %0)
  store double %1, ptr %ZABS, align 8, !tbaa !62
  %2 = load double, ptr %ZABS, align 8, !tbaa !62
  %cmp = fcmp ogt double %2, 3.700000e+01
  br i1 %cmp, label %if.then, label %if.else

if.then:                                          ; preds = %entry
  store double 0.000000e+00, ptr %P, align 8, !tbaa !62
  br label %if.end29

if.else:                                          ; preds = %entry
  %3 = load double, ptr %ZABS, align 8, !tbaa !62
  %fneg = fneg double %3
  %4 = load double, ptr %ZABS, align 8, !tbaa !62
  %mul = fmul double %fneg, %4
  %div = fdiv double %mul, 2.000000e+00
  %call = call double @exp(double noundef %div) #11, !tbaa !14
  store double %call, ptr %EXPNTL, align 8, !tbaa !62
  %5 = load double, ptr %ZABS, align 8, !tbaa !62
  %6 = load double, ptr %CUTOFF, align 8, !tbaa !62
  %cmp1 = fcmp olt double %5, %6
  br i1 %cmp1, label %if.then2, label %if.else18

if.then2:                                         ; preds = %if.else
  %7 = load double, ptr %EXPNTL, align 8, !tbaa !62
  %8 = load double, ptr %P6, align 8, !tbaa !62
  %9 = load double, ptr %ZABS, align 8, !tbaa !62
  %10 = load double, ptr %P5, align 8, !tbaa !62
  %11 = call double @llvm.fmuladd.f64(double %8, double %9, double %10)
  %12 = load double, ptr %ZABS, align 8, !tbaa !62
  %13 = load double, ptr %P4, align 8, !tbaa !62
  %14 = call double @llvm.fmuladd.f64(double %11, double %12, double %13)
  %15 = load double, ptr %ZABS, align 8, !tbaa !62
  %16 = load double, ptr %P3, align 8, !tbaa !62
  %17 = call double @llvm.fmuladd.f64(double %14, double %15, double %16)
  %18 = load double, ptr %ZABS, align 8, !tbaa !62
  %19 = load double, ptr %P2, align 8, !tbaa !62
  %20 = call double @llvm.fmuladd.f64(double %17, double %18, double %19)
  %21 = load double, ptr %ZABS, align 8, !tbaa !62
  %22 = load double, ptr %P1, align 8, !tbaa !62
  %23 = call double @llvm.fmuladd.f64(double %20, double %21, double %22)
  %24 = load double, ptr %ZABS, align 8, !tbaa !62
  %25 = load double, ptr %P0, align 8, !tbaa !62
  %26 = call double @llvm.fmuladd.f64(double %23, double %24, double %25)
  %mul9 = fmul double %7, %26
  %27 = load double, ptr %Q7, align 8, !tbaa !62
  %28 = load double, ptr %ZABS, align 8, !tbaa !62
  %29 = load double, ptr %Q6, align 8, !tbaa !62
  %30 = call double @llvm.fmuladd.f64(double %27, double %28, double %29)
  %31 = load double, ptr %ZABS, align 8, !tbaa !62
  %32 = load double, ptr %Q5, align 8, !tbaa !62
  %33 = call double @llvm.fmuladd.f64(double %30, double %31, double %32)
  %34 = load double, ptr %ZABS, align 8, !tbaa !62
  %35 = load double, ptr %Q4, align 8, !tbaa !62
  %36 = call double @llvm.fmuladd.f64(double %33, double %34, double %35)
  %37 = load double, ptr %ZABS, align 8, !tbaa !62
  %38 = load double, ptr %Q3, align 8, !tbaa !62
  %39 = call double @llvm.fmuladd.f64(double %36, double %37, double %38)
  %40 = load double, ptr %ZABS, align 8, !tbaa !62
  %41 = load double, ptr %Q2, align 8, !tbaa !62
  %42 = call double @llvm.fmuladd.f64(double %39, double %40, double %41)
  %43 = load double, ptr %ZABS, align 8, !tbaa !62
  %44 = load double, ptr %Q1, align 8, !tbaa !62
  %45 = call double @llvm.fmuladd.f64(double %42, double %43, double %44)
  %46 = load double, ptr %ZABS, align 8, !tbaa !62
  %47 = load double, ptr %Q0, align 8, !tbaa !62
  %48 = call double @llvm.fmuladd.f64(double %45, double %46, double %47)
  %div17 = fdiv double %mul9, %48
  store double %div17, ptr %P, align 8, !tbaa !62
  br label %if.end

if.else18:                                        ; preds = %if.else
  %49 = load double, ptr %EXPNTL, align 8, !tbaa !62
  %50 = load double, ptr %ZABS, align 8, !tbaa !62
  %51 = load double, ptr %ZABS, align 8, !tbaa !62
  %52 = load double, ptr %ZABS, align 8, !tbaa !62
  %53 = load double, ptr %ZABS, align 8, !tbaa !62
  %54 = load double, ptr %ZABS, align 8, !tbaa !62
  %add = fadd double %54, 6.500000e-01
  %div19 = fdiv double 4.000000e+00, %add
  %add20 = fadd double %53, %div19
  %div21 = fdiv double 3.000000e+00, %add20
  %add22 = fadd double %52, %div21
  %div23 = fdiv double 2.000000e+00, %add22
  %add24 = fadd double %51, %div23
  %div25 = fdiv double 1.000000e+00, %add24
  %add26 = fadd double %50, %div25
  %div27 = fdiv double %49, %add26
  %55 = load double, ptr %ROOTPI, align 8, !tbaa !62
  %div28 = fdiv double %div27, %55
  store double %div28, ptr %P, align 8, !tbaa !62
  br label %if.end

if.end:                                           ; preds = %if.else18, %if.then2
  br label %if.end29

if.end29:                                         ; preds = %if.end, %if.then
  %56 = load double, ptr %Z.addr, align 8, !tbaa !62
  %cmp30 = fcmp ogt double %56, 0.000000e+00
  br i1 %cmp30, label %if.then31, label %if.end32

if.then31:                                        ; preds = %if.end29
  %57 = load double, ptr %P, align 8, !tbaa !62
  %sub = fsub double 1.000000e+00, %57
  store double %sub, ptr %P, align 8, !tbaa !62
  br label %if.end32

if.end32:                                         ; preds = %if.then31, %if.end29
  %58 = load double, ptr %P, align 8, !tbaa !62
  call void @llvm.lifetime.end.p0(i64 8, ptr %ZABS) #11
  call void @llvm.lifetime.end.p0(i64 8, ptr %ROOTPI) #11
  call void @llvm.lifetime.end.p0(i64 8, ptr %CUTOFF) #11
  call void @llvm.lifetime.end.p0(i64 8, ptr %EXPNTL) #11
  call void @llvm.lifetime.end.p0(i64 8, ptr %P) #11
  call void @llvm.lifetime.end.p0(i64 8, ptr %Q7) #11
  call void @llvm.lifetime.end.p0(i64 8, ptr %Q6) #11
  call void @llvm.lifetime.end.p0(i64 8, ptr %Q5) #11
  call void @llvm.lifetime.end.p0(i64 8, ptr %Q4) #11
  call void @llvm.lifetime.end.p0(i64 8, ptr %Q3) #11
  call void @llvm.lifetime.end.p0(i64 8, ptr %Q2) #11
  call void @llvm.lifetime.end.p0(i64 8, ptr %Q1) #11
  call void @llvm.lifetime.end.p0(i64 8, ptr %Q0) #11
  call void @llvm.lifetime.end.p0(i64 8, ptr %P6) #11
  call void @llvm.lifetime.end.p0(i64 8, ptr %P5) #11
  call void @llvm.lifetime.end.p0(i64 8, ptr %P4) #11
  call void @llvm.lifetime.end.p0(i64 8, ptr %P3) #11
  call void @llvm.lifetime.end.p0(i64 8, ptr %P2) #11
  call void @llvm.lifetime.end.p0(i64 8, ptr %P1) #11
  call void @llvm.lifetime.end.p0(i64 8, ptr %P0) #11
  ret double %58
}

; Function Attrs: mustprogress uwtable
define internal noundef double @_ZN8QuantLib12_GLOBAL__N_13dffEdddddd(double noundef %s, double noundef %p, double noundef %tt, double noundef %a, double noundef %b, double noundef %gm) #2 {
entry:
  %s.addr = alloca double, align 8
  %p.addr = alloca double, align 8
  %tt.addr = alloca double, align 8
  %a.addr = alloca double, align 8
  %b.addr = alloca double, align 8
  %gm.addr = alloca double, align 8
  %result = alloca double, align 8
  %aa = alloca double, align 8
  %caux = alloca double, align 8
  %caux1 = alloca double, align 8
  %caux2 = alloca double, align 8
  %xx = alloca double, align 8
  %yy = alloca double, align 8
  %rho = alloca double, align 8
  store double %s, ptr %s.addr, align 8, !tbaa !62
  store double %p, ptr %p.addr, align 8, !tbaa !62
  store double %tt, ptr %tt.addr, align 8, !tbaa !62
  store double %a, ptr %a.addr, align 8, !tbaa !62
  store double %b, ptr %b.addr, align 8, !tbaa !62
  store double %gm, ptr %gm.addr, align 8, !tbaa !62
  call void @llvm.lifetime.start.p0(i64 8, ptr %result) #11
  call void @llvm.lifetime.start.p0(i64 8, ptr %aa) #11
  call void @llvm.lifetime.start.p0(i64 8, ptr %caux) #11
  call void @llvm.lifetime.start.p0(i64 8, ptr %caux1) #11
  call void @llvm.lifetime.start.p0(i64 8, ptr %caux2) #11
  call void @llvm.lifetime.start.p0(i64 8, ptr %xx) #11
  call void @llvm.lifetime.start.p0(i64 8, ptr %yy) #11
  call void @llvm.lifetime.start.p0(i64 8, ptr %rho) #11
  %0 = load double, ptr %a.addr, align 8, !tbaa !62
  %1 = load double, ptr %b.addr, align 8, !tbaa !62
  %2 = load double, ptr %tt.addr, align 8, !tbaa !62
  %3 = load double, ptr %p.addr, align 8, !tbaa !62
  %sub = fsub double %2, %3
  %neg = fneg double %1
  %4 = call double @llvm.fmuladd.f64(double %neg, double %sub, double %0)
  %5 = load double, ptr %tt.addr, align 8, !tbaa !62
  %6 = load double, ptr %p.addr, align 8, !tbaa !62
  %sub1 = fsub double %5, %6
  %mul = fmul double 2.000000e+00, %sub1
  %call = call double @pow(double noundef %mul, double noundef 5.000000e-01) #11, !tbaa !14
  %div = fdiv double %4, %call
  store double %div, ptr %xx, align 8, !tbaa !62
  %7 = load double, ptr %xx, align 8, !tbaa !62
  %call2 = call noundef double @_ZN8QuantLib12_GLOBAL__N_14PHIDEd(double noundef %7)
  %fneg = fneg double %call2
  %8 = load double, ptr %a.addr, align 8, !tbaa !62
  %mul3 = fmul double -5.000000e-01, %8
  %9 = load double, ptr %b.addr, align 8, !tbaa !62
  %mul4 = fmul double %mul3, %9
  %call5 = call double @exp(double noundef %mul4) #11, !tbaa !14
  %mul6 = fmul double %fneg, %call5
  store double %mul6, ptr %caux, align 8, !tbaa !62
  %10 = load double, ptr %a.addr, align 8, !tbaa !62
  %11 = load double, ptr %b.addr, align 8, !tbaa !62
  %12 = load double, ptr %tt.addr, align 8, !tbaa !62
  %13 = load double, ptr %p.addr, align 8, !tbaa !62
  %sub7 = fsub double %12, %13
  %14 = call double @llvm.fmuladd.f64(double %11, double %sub7, double %10)
  %15 = load double, ptr %tt.addr, align 8, !tbaa !62
  %16 = load double, ptr %p.addr, align 8, !tbaa !62
  %sub9 = fsub double %15, %16
  %mul10 = fmul double 2.000000e+00, %sub9
  %call11 = call double @pow(double noundef %mul10, double noundef 5.000000e-01) #11, !tbaa !14
  %div12 = fdiv double %14, %call11
  store double %div12, ptr %xx, align 8, !tbaa !62
  %17 = load double, ptr %a.addr, align 8, !tbaa !62
  %18 = load double, ptr %b.addr, align 8, !tbaa !62
  %19 = load double, ptr %tt.addr, align 8, !tbaa !62
  %20 = load double, ptr %s.addr, align 8, !tbaa !62
  %sub13 = fsub double %19, %20
  %21 = call double @llvm.fmuladd.f64(double %18, double %sub13, double %17)
  %22 = load double, ptr %tt.addr, align 8, !tbaa !62
  %23 = load double, ptr %s.addr, align 8, !tbaa !62
  %sub15 = fsub double %22, %23
  %mul16 = fmul double 2.000000e+00, %sub15
  %call17 = call double @pow(double noundef %mul16, double noundef 5.000000e-01) #11, !tbaa !14
  %div18 = fdiv double %21, %call17
  store double %div18, ptr %yy, align 8, !tbaa !62
  %24 = load double, ptr %tt.addr, align 8, !tbaa !62
  %25 = load double, ptr %p.addr, align 8, !tbaa !62
  %sub19 = fsub double %24, %25
  %26 = load double, ptr %tt.addr, align 8, !tbaa !62
  %27 = load double, ptr %s.addr, align 8, !tbaa !62
  %sub20 = fsub double %26, %27
  %div21 = fdiv double %sub19, %sub20
  %call22 = call double @pow(double noundef %div21, double noundef 5.000000e-01) #11, !tbaa !14
  store double %call22, ptr %rho, align 8, !tbaa !62
  %28 = load double, ptr %xx, align 8, !tbaa !62
  %fneg23 = fneg double %28
  %29 = load double, ptr %yy, align 8, !tbaa !62
  %fneg24 = fneg double %29
  %30 = load double, ptr %rho, align 8, !tbaa !62
  %call25 = call noundef double @_ZN8QuantLib12_GLOBAL__N_13ND2Eddd(double noundef %fneg23, double noundef %fneg24, double noundef %30)
  store double %call25, ptr %caux1, align 8, !tbaa !62
  %31 = load double, ptr %a.addr, align 8, !tbaa !62
  %mul26 = fmul double 5.000000e-01, %31
  %32 = load double, ptr %b.addr, align 8, !tbaa !62
  %mul27 = fmul double %mul26, %32
  %call28 = call double @exp(double noundef %mul27) #11, !tbaa !14
  %33 = load double, ptr %caux1, align 8, !tbaa !62
  %mul29 = fmul double %call28, %33
  store double %mul29, ptr %caux1, align 8, !tbaa !62
  %34 = load double, ptr %a.addr, align 8, !tbaa !62
  %35 = load double, ptr %b.addr, align 8, !tbaa !62
  %36 = load double, ptr %tt.addr, align 8, !tbaa !62
  %37 = load double, ptr %p.addr, align 8, !tbaa !62
  %sub30 = fsub double %36, %37
  %neg32 = fneg double %35
  %38 = call double @llvm.fmuladd.f64(double %neg32, double %sub30, double %34)
  %39 = load double, ptr %tt.addr, align 8, !tbaa !62
  %40 = load double, ptr %p.addr, align 8, !tbaa !62
  %sub33 = fsub double %39, %40
  %mul34 = fmul double 2.000000e+00, %sub33
  %call35 = call double @pow(double noundef %mul34, double noundef 5.000000e-01) #11, !tbaa !14
  %div36 = fdiv double %38, %call35
  store double %div36, ptr %xx, align 8, !tbaa !62
  %41 = load double, ptr %a.addr, align 8, !tbaa !62
  %42 = load double, ptr %b.addr, align 8, !tbaa !62
  %43 = load double, ptr %tt.addr, align 8, !tbaa !62
  %44 = load double, ptr %s.addr, align 8, !tbaa !62
  %sub37 = fsub double %43, %44
  %neg39 = fneg double %42
  %45 = call double @llvm.fmuladd.f64(double %neg39, double %sub37, double %41)
  %46 = load double, ptr %tt.addr, align 8, !tbaa !62
  %47 = load double, ptr %s.addr, align 8, !tbaa !62
  %sub40 = fsub double %46, %47
  %mul41 = fmul double 2.000000e+00, %sub40
  %call42 = call double @pow(double noundef %mul41, double noundef 5.000000e-01) #11, !tbaa !14
  %div43 = fdiv double %45, %call42
  store double %div43, ptr %yy, align 8, !tbaa !62
  %48 = load double, ptr %tt.addr, align 8, !tbaa !62
  %49 = load double, ptr %p.addr, align 8, !tbaa !62
  %sub44 = fsub double %48, %49
  %50 = load double, ptr %tt.addr, align 8, !tbaa !62
  %51 = load double, ptr %s.addr, align 8, !tbaa !62
  %sub45 = fsub double %50, %51
  %div46 = fdiv double %sub44, %sub45
  %call47 = call double @pow(double noundef %div46, double noundef 5.000000e-01) #11, !tbaa !14
  store double %call47, ptr %rho, align 8, !tbaa !62
  %52 = load double, ptr %xx, align 8, !tbaa !62
  %fneg48 = fneg double %52
  %53 = load double, ptr %yy, align 8, !tbaa !62
  %fneg49 = fneg double %53
  %54 = load double, ptr %rho, align 8, !tbaa !62
  %call50 = call noundef double @_ZN8QuantLib12_GLOBAL__N_13ND2Eddd(double noundef %fneg48, double noundef %fneg49, double noundef %54)
  store double %call50, ptr %caux2, align 8, !tbaa !62
  %55 = load double, ptr %a.addr, align 8, !tbaa !62
  %mul51 = fmul double -5.000000e-01, %55
  %56 = load double, ptr %b.addr, align 8, !tbaa !62
  %mul52 = fmul double %mul51, %56
  %call53 = call double @exp(double noundef %mul52) #11, !tbaa !14
  %57 = load double, ptr %caux2, align 8, !tbaa !62
  %mul54 = fmul double %call53, %57
  store double %mul54, ptr %caux2, align 8, !tbaa !62
  %58 = load double, ptr %b.addr, align 8, !tbaa !62
  %59 = load double, ptr %b.addr, align 8, !tbaa !62
  %60 = load double, ptr %gm.addr, align 8, !tbaa !62
  %sub56 = fsub double 1.000000e+00, %60
  %61 = load double, ptr %gm.addr, align 8, !tbaa !62
  %sub57 = fsub double 1.000000e+00, %61
  %mul58 = fmul double %sub56, %sub57
  %neg59 = fneg double %mul58
  %62 = call double @llvm.fmuladd.f64(double %58, double %59, double %neg59)
  %63 = load double, ptr %tt.addr, align 8, !tbaa !62
  %64 = load double, ptr %s.addr, align 8, !tbaa !62
  %sub60 = fsub double %63, %64
  %mul61 = fmul double %62, %sub60
  %div62 = fdiv double %mul61, 4.000000e+00
  %call63 = call double @exp(double noundef %div62) #11, !tbaa !14
  store double %call63, ptr %aa, align 8, !tbaa !62
  %65 = load double, ptr %caux, align 8, !tbaa !62
  %66 = load double, ptr %caux1, align 8, !tbaa !62
  %add = fadd double %65, %66
  %67 = load double, ptr %caux2, align 8, !tbaa !62
  %add64 = fadd double %add, %67
  %68 = load double, ptr %aa, align 8, !tbaa !62
  %mul65 = fmul double %add64, %68
  store double %mul65, ptr %result, align 8, !tbaa !62
  %69 = load double, ptr %result, align 8, !tbaa !62
  call void @llvm.lifetime.end.p0(i64 8, ptr %rho) #11
  call void @llvm.lifetime.end.p0(i64 8, ptr %yy) #11
  call void @llvm.lifetime.end.p0(i64 8, ptr %xx) #11
  call void @llvm.lifetime.end.p0(i64 8, ptr %caux2) #11
  call void @llvm.lifetime.end.p0(i64 8, ptr %caux1) #11
  call void @llvm.lifetime.end.p0(i64 8, ptr %caux) #11
  call void @llvm.lifetime.end.p0(i64 8, ptr %aa) #11
  call void @llvm.lifetime.end.p0(i64 8, ptr %result) #11
  ret double %69
}